target datalayout = "e-m:e-p270:32:32-p271:32:32-p272:64:64-i64:64-i128:128-f80:128-n8:16:32:64-S128"
target triple = "x86_64-pc-linux-gnu"

%struct.PageHeaderData = type { %struct.PageXLogRecPtr, i16, i16, i16, i16, i16, i16, i32, [0 x %struct.ItemIdData] }
%struct.PageXLogRecPtr = type { i32, i32 }
%struct.ItemIdData = type { i32 }
%struct.PruneState = type { ptr, i8, i8, ptr, i32, i32, i32, i32, i32, i32, [582 x i16], [291 x i16], [291 x i16], [291 x %struct.HeapTupleFreeze], i32, [291 x i16], i32, [291 x i16], [292 x i8], [292 x i8], %struct.HeapPageFreeze, i32, i32, i32, i8, i32, ptr, i8, i8, i32 }
%struct.HeapTupleFreeze = type { i32, i16, i16, i8, i8, i16 }
%struct.HeapPageFreeze = type { i8, i32, i32, i32, i32 }
%struct.ItemPointerData = type { %struct.BlockIdData, i16 }
%struct.BlockIdData = type { i16, i16 }
%struct.VacuumCutoffs = type { i32, i32, i32, i32, i32, i32 }
%struct.HeapTupleHeaderData = type { %union.anon, %struct.ItemPointerData, i16, i16, i8, [0 x i8] }
%union.anon = type { %struct.HeapTupleFields }
%struct.HeapTupleFields = type { i32, i32, %union.anon.0 }
%union.anon.0 = type { i32 }

@.str.1 = private unnamed_addr constant [12 x i8] c"pruneheap.c\00", align 1
@.str.4 = private unnamed_addr constant [46 x i8] c"unexpected HeapTupleSatisfiesVacuum result %d\00", align 1
@__func__.heap_prune_record_unchanged_lp_normal = private unnamed_addr constant [38 x i8] c"heap_prune_record_unchanged_lp_normal\00", align 1

; Function Attrs: inlinehint nounwind uwtable
define internal i32 @HeapTupleHeaderGetRawXmax(ptr noundef %0) #2 {
  %2 = alloca ptr, align 8
  store ptr %0, ptr %2, align 8
  %3 = load ptr, ptr %2, align 8
  %4 = getelementptr inbounds nuw %struct.HeapTupleHeaderData, ptr %3, i32 0, i32 0
  %5 = getelementptr inbounds nuw %struct.HeapTupleFields, ptr %4, i32 0, i32 1
  %6 = load i32, ptr %5, align 4
  ret i32 %6
}

; Function Attrs: inlinehint nounwind uwtable
define internal i32 @HeapTupleHeaderGetRawXmin(ptr noundef %0) #2 {
  %2 = alloca ptr, align 8
  store ptr %0, ptr %2, align 8
  %3 = load ptr, ptr %2, align 8
  %4 = getelementptr inbounds nuw %struct.HeapTupleHeaderData, ptr %3, i32 0, i32 0
  %5 = getelementptr inbounds nuw %struct.HeapTupleFields, ptr %4, i32 0, i32 0
  %6 = load i32, ptr %5, align 4
  ret i32 %6
}

; Function Attrs: inlinehint nounwind uwtable
define internal zeroext i1 @HeapTupleHeaderXminFrozen(ptr noundef %0) #2 {
  %2 = alloca ptr, align 8
  store ptr %0, ptr %2, align 8
  %3 = load ptr, ptr %2, align 8
  %4 = getelementptr inbounds nuw %struct.HeapTupleHeaderData, ptr %3, i32 0, i32 3
  %5 = load i16, ptr %4, align 4
  %6 = zext i16 %5 to i32
  %7 = and i32 %6, 768
  %8 = icmp eq i32 %7, 768
  ret i1 %8
}

; Function Attrs: nounwind uwtable
define internal void @heap_prune_record_prunable(ptr noundef %0, i32 noundef %1) #0 {
  %3 = alloca ptr, align 8
  %4 = alloca i32, align 4
  store ptr %0, ptr %3, align 8
  store i32 %1, ptr %4, align 4
  %5 = load ptr, ptr %3, align 8
  %6 = getelementptr inbounds nuw %struct.PruneState, ptr %5, i32 0, i32 4
  %7 = load i32, ptr %6, align 8
  %8 = icmp ne i32 %7, 0
  br i1 %8, label %9, label %15

9:                                                ; preds = %2
  %10 = load i32, ptr %4, align 4
  %11 = load ptr, ptr %3, align 8
  %12 = getelementptr inbounds nuw %struct.PruneState, ptr %11, i32 0, i32 4
  %13 = load i32, ptr %12, align 8
  %14 = call zeroext i1 @TransactionIdPrecedes(i32 noundef %10, i32 noundef %13)
  br i1 %14, label %15, label %19

15:                                               ; preds = %9, %2
  %16 = load i32, ptr %4, align 4
  %17 = load ptr, ptr %3, align 8
  %18 = getelementptr inbounds nuw %struct.PruneState, ptr %17, i32 0, i32 4
  store i32 %16, ptr %18, align 8
  br label %19

19:                                               ; preds = %15, %9
  ret void
}

; Function Attrs: inlinehint nounwind uwtable
define internal i32 @HeapTupleHeaderGetUpdateXid(ptr noundef %0) #2 {
  %2 = alloca i32, align 4
  %3 = alloca ptr, align 8
  store ptr %0, ptr %3, align 8
  %4 = load ptr, ptr %3, align 8
  %5 = getelementptr inbounds nuw %struct.HeapTupleHeaderData, ptr %4, i32 0, i32 3
  %6 = load i16, ptr %5, align 4
  %7 = zext i16 %6 to i32
  %8 = and i32 %7, 2048
  %9 = icmp ne i32 %8, 0
  br i1 %9, label %27, label %10

10:                                               ; preds = %1
  %11 = load ptr, ptr %3, align 8
  %12 = getelementptr inbounds nuw %struct.HeapTupleHeaderData, ptr %11, i32 0, i32 3
  %13 = load i16, ptr %12, align 4
  %14 = zext i16 %13 to i32
  %15 = and i32 %14, 4096
  %16 = icmp ne i32 %15, 0
  br i1 %16, label %17, label %27

17:                                               ; preds = %10
  %18 = load ptr, ptr %3, align 8
  %19 = getelementptr inbounds nuw %struct.HeapTupleHeaderData, ptr %18, i32 0, i32 3
  %20 = load i16, ptr %19, align 4
  %21 = zext i16 %20 to i32
  %22 = and i32 %21, 128
  %23 = icmp ne i32 %22, 0
  br i1 %23, label %27, label %24

24:                                               ; preds = %17
  %25 = load ptr, ptr %3, align 8
  %26 = call i32 @HeapTupleGetUpdateXid(ptr noundef %25)
  store i32 %26, ptr %2, align 4
  br label %30

27:                                               ; preds = %17, %10, %1
  %28 = load ptr, ptr %3, align 8
  %29 = call i32 @HeapTupleHeaderGetRawXmax(ptr noundef %28)
  store i32 %29, ptr %2, align 4
  br label %30

30:                                               ; preds = %27, %24
  %31 = load i32, ptr %2, align 4
  ret i32 %31
}

; Function Attrs: inlinehint nounwind uwtable
define internal i32 @HeapTupleHeaderGetXmin(ptr noundef %0) #2 {
  %2 = alloca ptr, align 8
  store ptr %0, ptr %2, align 8
  %3 = load ptr, ptr %2, align 8
  %4 = call zeroext i1 @HeapTupleHeaderXminFrozen(ptr noundef %3)
  br i1 %4, label %5, label %6

5:                                                ; preds = %1
  br label %9

6:                                                ; preds = %1
  %7 = load ptr, ptr %2, align 8
  %8 = call i32 @HeapTupleHeaderGetRawXmin(ptr noundef %7)
  br label %9

9:                                                ; preds = %6, %5
  %10 = phi i32 [ 2, %5 ], [ %8, %6 ]
  ret i32 %10
}

; Function Attrs: inlinehint nounwind uwtable
define internal zeroext i1 @HeapTupleHeaderXminCommitted(ptr noundef %0) #2 {
  %2 = alloca ptr, align 8
  store ptr %0, ptr %2, align 8
  %3 = load ptr, ptr %2, align 8
  %4 = getelementptr inbounds nuw %struct.HeapTupleHeaderData, ptr %3, i32 0, i32 3
  %5 = load i16, ptr %4, align 4
  %6 = zext i16 %5 to i32
  %7 = and i32 %6, 256
  %8 = icmp ne i32 %7, 0
  ret i1 %8
}

; Function Attrs: inlinehint nounwind uwtable
define internal ptr @PageGetItem(ptr noundef %0, ptr noundef %1) #2 {
  %3 = alloca ptr, align 8
  %4 = alloca ptr, align 8
  store ptr %0, ptr %3, align 8
  store ptr %1, ptr %4, align 8
  %5 = load ptr, ptr %3, align 8
  %6 = load ptr, ptr %4, align 8
  %7 = load i32, ptr %6, align 4
  %8 = and i32 %7, 32767
  %9 = sext i32 %8 to i64
  %10 = getelementptr inbounds i8, ptr %5, i64 %9
  ret ptr %10
}

; Function Attrs: inlinehint nounwind uwtable
define internal ptr @PageGetItemId(ptr noundef %0, i16 noundef zeroext %1) #2 {
  %3 = alloca ptr, align 8
  %4 = alloca i16, align 2
  store ptr %0, ptr %3, align 8
  store i16 %1, ptr %4, align 2
  %5 = load ptr, ptr %3, align 8
  %6 = getelementptr inbounds nuw %struct.PageHeaderData, ptr %5, i32 0, i32 8
  %7 = load i16, ptr %4, align 2
  %8 = zext i16 %7 to i32
  %9 = sub i32 %8, 1
  %10 = sext i32 %9 to i64
  %11 = getelementptr inbounds [0 x %struct.ItemIdData], ptr %6, i64 0, i64 %10
  ret ptr %11
}

; Function Attrs: nounwind uwtable
define internal void @heap_prune_record_unchanged_lp_normal(ptr noundef %0, ptr noundef %1, i16 noundef zeroext %2) #0 {
  %4 = alloca ptr, align 8
  %5 = alloca ptr, align 8
  %6 = alloca i16, align 2
  %7 = alloca ptr, align 8
  %8 = alloca i32, align 4
  %9 = alloca i32, align 4
  %10 = alloca i8, align 1
  store ptr %0, ptr %4, align 8
  store ptr %1, ptr %5, align 8
  store i16 %2, ptr %6, align 2
  call void @llvm.lifetime.start.p0(i64 8, ptr %7) #7
  %11 = load ptr, ptr %5, align 8
  %12 = getelementptr inbounds nuw %struct.PruneState, ptr %11, i32 0, i32 18
  %13 = load i16, ptr %6, align 2
  %14 = zext i16 %13 to i64
  %15 = getelementptr inbounds nuw [292 x i8], ptr %12, i64 0, i64 %14
  store i8 1, ptr %15, align 1
  %16 = load ptr, ptr %5, align 8
  %17 = getelementptr inbounds nuw %struct.PruneState, ptr %16, i32 0, i32 24
  store i8 1, ptr %17, align 4
  %18 = load ptr, ptr %4, align 8
  %19 = load ptr, ptr %4, align 8
  %20 = load i16, ptr %6, align 2
  %21 = call ptr @PageGetItemId(ptr noundef %19, i16 noundef zeroext %20)
  %22 = call ptr @PageGetItem(ptr noundef %18, ptr noundef %21)
  store ptr %22, ptr %7, align 8
  %23 = load ptr, ptr %5, align 8
  %24 = getelementptr inbounds nuw %struct.PruneState, ptr %23, i32 0, i32 19
  %25 = load i16, ptr %6, align 2
  %26 = zext i16 %25 to i64
  %27 = getelementptr inbounds nuw [292 x i8], ptr %24, i64 0, i64 %26
  %28 = load i8, ptr %27, align 1
  %29 = sext i8 %28 to i32
  switch i32 %29, label %99 [
    i32 1, label %30
    i32 2, label %76
    i32 3, label %86
    i32 4, label %89
  ]

30:                                               ; preds = %3
  %31 = load ptr, ptr %5, align 8
  %32 = getelementptr inbounds nuw %struct.PruneState, ptr %31, i32 0, i32 22
  %33 = load i32, ptr %32, align 4
  %34 = add i32 %33, 1
  store i32 %34, ptr %32, align 4
  %35 = load ptr, ptr %5, align 8
  %36 = getelementptr inbounds nuw %struct.PruneState, ptr %35, i32 0, i32 27
  %37 = load i8, ptr %36, align 8, !range !4, !noundef !5
  %38 = trunc i8 %37 to i1
  br i1 %38, label %39, label %75

39:                                               ; preds = %30
  call void @llvm.lifetime.start.p0(i64 4, ptr %8) #7
  %40 = load ptr, ptr %7, align 8
  %41 = call zeroext i1 @HeapTupleHeaderXminCommitted(ptr noundef %40)
  br i1 %41, label %45, label %42

42:                                               ; preds = %39
  %43 = load ptr, ptr %5, align 8
  %44 = getelementptr inbounds nuw %struct.PruneState, ptr %43, i32 0, i32 27
  store i8 0, ptr %44, align 8
  store i32 2, ptr %9, align 4
  br label %72

45:                                               ; preds = %39
  %46 = load ptr, ptr %7, align 8
  %47 = call i32 @HeapTupleHeaderGetXmin(ptr noundef %46)
  store i32 %47, ptr %8, align 4
  %48 = load i32, ptr %8, align 4
  %49 = load ptr, ptr %5, align 8
  %50 = getelementptr inbounds nuw %struct.PruneState, ptr %49, i32 0, i32 3
  %51 = load ptr, ptr %50, align 8
  %52 = getelementptr inbounds nuw %struct.VacuumCutoffs, ptr %51, i32 0, i32 2
  %53 = load i32, ptr %52, align 4
  %54 = call zeroext i1 @TransactionIdPrecedes(i32 noundef %48, i32 noundef %53)
  br i1 %54, label %58, label %55

55:                                               ; preds = %45
  %56 = load ptr, ptr %5, align 8
  %57 = getelementptr inbounds nuw %struct.PruneState, ptr %56, i32 0, i32 27
  store i8 0, ptr %57, align 8
  store i32 2, ptr %9, align 4
  br label %72

58:                                               ; preds = %45
  %59 = load i32, ptr %8, align 4
  %60 = load ptr, ptr %5, align 8
  %61 = getelementptr inbounds nuw %struct.PruneState, ptr %60, i32 0, i32 29
  %62 = load i32, ptr %61, align 4
  %63 = call zeroext i1 @TransactionIdFollows(i32 noundef %59, i32 noundef %62)
  br i1 %63, label %64, label %71

64:                                               ; preds = %58
  %65 = load i32, ptr %8, align 4
  %66 = icmp uge i32 %65, 3
  br i1 %66, label %67, label %71

67:                                               ; preds = %64
  %68 = load i32, ptr %8, align 4
  %69 = load ptr, ptr %5, align 8
  %70 = getelementptr inbounds nuw %struct.PruneState, ptr %69, i32 0, i32 29
  store i32 %68, ptr %70, align 4
  br label %71

71:                                               ; preds = %67, %64, %58
  store i32 0, ptr %9, align 4
  br label %72

72:                                               ; preds = %71, %55, %42
  call void @llvm.lifetime.end.p0(i64 4, ptr %8) #7
  %73 = load i32, ptr %9, align 4
  switch i32 %73, label %156 [
    i32 0, label %74
    i32 2, label %117
  ]

74:                                               ; preds = %72
  br label %75

75:                                               ; preds = %74, %30
  br label %117

76:                                               ; preds = %3
  %77 = load ptr, ptr %5, align 8
  %78 = getelementptr inbounds nuw %struct.PruneState, ptr %77, i32 0, i32 23
  %79 = load i32, ptr %78, align 8
  %80 = add i32 %79, 1
  store i32 %80, ptr %78, align 8
  %81 = load ptr, ptr %5, align 8
  %82 = getelementptr inbounds nuw %struct.PruneState, ptr %81, i32 0, i32 27
  store i8 0, ptr %82, align 8
  %83 = load ptr, ptr %5, align 8
  %84 = load ptr, ptr %7, align 8
  %85 = call i32 @HeapTupleHeaderGetUpdateXid(ptr noundef %84)
  call void @heap_prune_record_prunable(ptr noundef %83, i32 noundef %85)
  br label %117

86:                                               ; preds = %3
  %87 = load ptr, ptr %5, align 8
  %88 = getelementptr inbounds nuw %struct.PruneState, ptr %87, i32 0, i32 27
  store i8 0, ptr %88, align 8
  br label %117

89:                                               ; preds = %3
  %90 = load ptr, ptr %5, align 8
  %91 = getelementptr inbounds nuw %struct.PruneState, ptr %90, i32 0, i32 22
  %92 = load i32, ptr %91, align 4
  %93 = add i32 %92, 1
  store i32 %93, ptr %91, align 4
  %94 = load ptr, ptr %5, align 8
  %95 = getelementptr inbounds nuw %struct.PruneState, ptr %94, i32 0, i32 27
  store i8 0, ptr %95, align 8
  %96 = load ptr, ptr %5, align 8
  %97 = load ptr, ptr %7, align 8
  %98 = call i32 @HeapTupleHeaderGetUpdateXid(ptr noundef %97)
  call void @heap_prune_record_prunable(ptr noundef %96, i32 noundef %98)
  br label %117

99:                                               ; preds = %3
  br label %100

100:                                              ; preds = %99
  br i1 true, label %101, label %103

101:                                              ; preds = %100
  %102 = call zeroext i1 @errstart_cold(i32 noundef 21, ptr noundef null) #8
  br i1 %102, label %105, label %114

103:                                              ; preds = %100
  %104 = call zeroext i1 @errstart(i32 noundef 21, ptr noundef null)
  br i1 %104, label %105, label %114

105:                                              ; preds = %103, %101
  %106 = load ptr, ptr %5, align 8
  %107 = getelementptr inbounds nuw %struct.PruneState, ptr %106, i32 0, i32 19
  %108 = load i16, ptr %6, align 2
  %109 = zext i16 %108 to i64
  %110 = getelementptr inbounds nuw [292 x i8], ptr %107, i64 0, i64 %109
  %111 = load i8, ptr %110, align 1
  %112 = sext i8 %111 to i32
  %113 = call i32 (ptr, ...) @errmsg_internal(ptr noundef @.str.4, i32 noundef %112)
  call void @errfinish(ptr noundef @.str.1, i32 noundef 1474, ptr noundef @__func__.heap_prune_record_unchanged_lp_normal)
  br label %114

114:                                              ; preds = %105, %103, %101
  unreachable

115:                                              ; No predecessors!
  br label %116

116:                                              ; preds = %115
  br label %117

117:                                              ; preds = %116, %89, %86, %76, %75, %72
  %118 = load ptr, ptr %5, align 8
  %119 = getelementptr inbounds nuw %struct.PruneState, ptr %118, i32 0, i32 2
  %120 = load i8, ptr %119, align 1, !range !4, !noundef !5
  %121 = trunc i8 %120 to i1
  br i1 %121, label %122, label %155

122:                                              ; preds = %117
  call void @llvm.lifetime.start.p0(i64 1, ptr %10) #7
  %123 = load ptr, ptr %7, align 8
  %124 = load ptr, ptr %5, align 8
  %125 = getelementptr inbounds nuw %struct.PruneState, ptr %124, i32 0, i32 3
  %126 = load ptr, ptr %125, align 8
  %127 = load ptr, ptr %5, align 8
  %128 = getelementptr inbounds nuw %struct.PruneState, ptr %127, i32 0, i32 20
  %129 = load ptr, ptr %5, align 8
  %130 = getelementptr inbounds nuw %struct.PruneState, ptr %129, i32 0, i32 13
  %131 = load ptr, ptr %5, align 8
  %132 = getelementptr inbounds nuw %struct.PruneState, ptr %131, i32 0, i32 9
  %133 = load i32, ptr %132, align 4
  %134 = sext i32 %133 to i64
  %135 = getelementptr inbounds [291 x %struct.HeapTupleFreeze], ptr %130, i64 0, i64 %134
  %136 = call zeroext i1 @heap_prepare_freeze_tuple(ptr noundef %123, ptr noundef %126, ptr noundef %128, ptr noundef %135, ptr noundef %10)
  br i1 %136, label %137, label %148

137:                                              ; preds = %122
  %138 = load i16, ptr %6, align 2
  %139 = load ptr, ptr %5, align 8
  %140 = getelementptr inbounds nuw %struct.PruneState, ptr %139, i32 0, i32 13
  %141 = load ptr, ptr %5, align 8
  %142 = getelementptr inbounds nuw %struct.PruneState, ptr %141, i32 0, i32 9
  %143 = load i32, ptr %142, align 4
  %144 = add i32 %143, 1
  store i32 %144, ptr %142, align 4
  %145 = sext i32 %143 to i64
  %146 = getelementptr inbounds [291 x %struct.HeapTupleFreeze], ptr %140, i64 0, i64 %145
  %147 = getelementptr inbounds nuw %struct.HeapTupleFreeze, ptr %146, i32 0, i32 5
  store i16 %138, ptr %147, align 2
  br label %148

148:                                              ; preds = %137, %122
  %149 = load i8, ptr %10, align 1, !range !4, !noundef !5
  %150 = trunc i8 %149 to i1
  br i1 %150, label %154, label %151

151:                                              ; preds = %148
  %152 = load ptr, ptr %5, align 8
  %153 = getelementptr inbounds nuw %struct.PruneState, ptr %152, i32 0, i32 28
  store i8 0, ptr %153, align 1
  br label %154

154:                                              ; preds = %151, %148
  call void @llvm.lifetime.end.p0(i64 1, ptr %10) #7
  br label %155

155:                                              ; preds = %154, %117
  call void @llvm.lifetime.end.p0(i64 8, ptr %7) #7
  ret void

156:                                              ; preds = %72
  unreachable
}