; Function Attrs: nounwind uwtable
define internal fastcc void @heap_prune_record_unchanged_lp_normal(ptr noundef %0, ptr noundef nonnull initializes((7660, 7661)) %1, i16 noundef zeroext %2) unnamed_addr #0 {
  %4 = alloca i8, align 1
  %5 = getelementptr inbounds nuw i8, ptr %1, i64 7042
  %6 = zext i16 %2 to i64
  %7 = getelementptr inbounds nuw [292 x i8], ptr %5, i64 0, i64 %6
  store i8 1, ptr %7, align 1
  %8 = getelementptr inbounds nuw i8, ptr %1, i64 7660
  store i8 1, ptr %8, align 4
  %9 = getelementptr inbounds nuw i8, ptr %0, i64 24
  %10 = add nsw i64 %6, -1
  %11 = getelementptr inbounds [0 x %struct.ItemIdData], ptr %9, i64 0, i64 %10
  %.val = load i32, ptr %11, align 4
  %12 = and i32 %.val, 32767
  %13 = zext nneg i32 %12 to i64
  %14 = getelementptr inbounds nuw i8, ptr %0, i64 %13
  %15 = getelementptr inbounds nuw i8, ptr %1, i64 7334
  %16 = getelementptr inbounds nuw [292 x i8], ptr %15, i64 0, i64 %6
  %17 = load i8, ptr %16, align 1
  switch i8 %17, label %82 [
    i8 1, label %18
    i8 2, label %46
    i8 3, label %63
    i8 4, label %65
  ]

18:                                               ; preds = %3
  %19 = getelementptr inbounds nuw i8, ptr %1, i64 7652
  %20 = load i32, ptr %19, align 4
  %21 = add i32 %20, 1
  store i32 %21, ptr %19, align 4
  %22 = getelementptr inbounds nuw i8, ptr %1, i64 7680
  %23 = load i8, ptr %22, align 8, !range !4, !noundef !5
  %24 = trunc nuw i8 %23 to i1
  br i1 %24, label %25, label %heap_prune_record_prunable.exit

25:                                               ; preds = %18
  %26 = getelementptr i8, ptr %14, i64 20
  %.val42 = load i16, ptr %26, align 4
  %27 = and i16 %.val42, 256
  %.not = icmp eq i16 %27, 0
  br i1 %.not, label %28, label %29

28:                                               ; preds = %25
  store i8 0, ptr %22, align 8
  br label %heap_prune_record_prunable.exit

29:                                               ; preds = %25
  %30 = and i16 %.val42, 768
  %31 = icmp eq i16 %30, 768
  br i1 %31, label %HeapTupleHeaderGetXmin.exit, label %32

32:                                               ; preds = %29
  %.val2.i = load i32, ptr %14, align 4
  br label %HeapTupleHeaderGetXmin.exit

HeapTupleHeaderGetXmin.exit:                      ; preds = %29, %32
  %33 = phi i32 [ %.val2.i, %32 ], [ 2, %29 ]
  %34 = getelementptr inbounds nuw i8, ptr %1, i64 16
  %35 = load ptr, ptr %34, align 8
  %36 = getelementptr inbounds nuw i8, ptr %35, i64 8
  %37 = load i32, ptr %36, align 4
  %38 = tail call zeroext i1 @TransactionIdPrecedes(i32 noundef %33, i32 noundef %37) #8
  br i1 %38, label %40, label %39

39:                                               ; preds = %HeapTupleHeaderGetXmin.exit
  store i8 0, ptr %22, align 8
  br label %heap_prune_record_prunable.exit

40:                                               ; preds = %HeapTupleHeaderGetXmin.exit
  %41 = getelementptr inbounds nuw i8, ptr %1, i64 7684
  %42 = load i32, ptr %41, align 4
  %43 = tail call zeroext i1 @TransactionIdFollows(i32 noundef %33, i32 noundef %42) #8
  %44 = icmp ugt i32 %33, 2
  %or.cond = and i1 %44, %43
  br i1 %or.cond, label %45, label %heap_prune_record_prunable.exit

45:                                               ; preds = %40
  store i32 %33, ptr %41, align 4
  br label %heap_prune_record_prunable.exit

46:                                               ; preds = %3
  %47 = getelementptr inbounds nuw i8, ptr %1, i64 7656
  %48 = load i32, ptr %47, align 8
  %49 = add i32 %48, 1
  store i32 %49, ptr %47, align 8
  %50 = getelementptr inbounds nuw i8, ptr %1, i64 7680
  store i8 0, ptr %50, align 8
  %51 = getelementptr inbounds nuw i8, ptr %14, i64 20
  %52 = load i16, ptr %51, align 4
  %53 = and i16 %52, 6272
  %or.cond7.i = icmp eq i16 %53, 4096
  br i1 %or.cond7.i, label %54, label %56

54:                                               ; preds = %46
  %55 = tail call i32 @HeapTupleGetUpdateXid(ptr noundef nonnull %14) #8
  br label %HeapTupleHeaderGetUpdateXid.exit

56:                                               ; preds = %46
  %57 = getelementptr i8, ptr %14, i64 4
  %.val.i43 = load i32, ptr %57, align 4
  br label %HeapTupleHeaderGetUpdateXid.exit

HeapTupleHeaderGetUpdateXid.exit:                 ; preds = %54, %56
  %.0.i = phi i32 [ %.val.i43, %56 ], [ %55, %54 ]
  %58 = getelementptr inbounds nuw i8, ptr %1, i64 24
  %59 = load i32, ptr %58, align 8
  %.not.i = icmp eq i32 %59, 0
  br i1 %.not.i, label %62, label %60

60:                                               ; preds = %HeapTupleHeaderGetUpdateXid.exit
  %61 = tail call zeroext i1 @TransactionIdPrecedes(i32 noundef %.0.i, i32 noundef %59) #8
  br i1 %61, label %62, label %heap_prune_record_prunable.exit

62:                                               ; preds = %60, %HeapTupleHeaderGetUpdateXid.exit
  store i32 %.0.i, ptr %58, align 8
  br label %heap_prune_record_prunable.exit

63:                                               ; preds = %3
  %64 = getelementptr inbounds nuw i8, ptr %1, i64 7680
  store i8 0, ptr %64, align 8
  br label %heap_prune_record_prunable.exit

65:                                               ; preds = %3
  %66 = getelementptr inbounds nuw i8, ptr %1, i64 7652
  %67 = load i32, ptr %66, align 4
  %68 = add i32 %67, 1
  store i32 %68, ptr %66, align 4
  %69 = getelementptr inbounds nuw i8, ptr %1, i64 7680
  store i8 0, ptr %69, align 8
  %70 = getelementptr inbounds nuw i8, ptr %14, i64 20
  %71 = load i16, ptr %70, align 4
  %72 = and i16 %71, 6272
  %or.cond7.i44 = icmp eq i16 %72, 4096
  br i1 %or.cond7.i44, label %73, label %75

73:                                               ; preds = %65
  %74 = tail call i32 @HeapTupleGetUpdateXid(ptr noundef nonnull %14) #8
  br label %HeapTupleHeaderGetUpdateXid.exit47

75:                                               ; preds = %65
  %76 = getelementptr i8, ptr %14, i64 4
  %.val.i45 = load i32, ptr %76, align 4
  br label %HeapTupleHeaderGetUpdateXid.exit47

HeapTupleHeaderGetUpdateXid.exit47:               ; preds = %73, %75
  %.0.i46 = phi i32 [ %.val.i45, %75 ], [ %74, %73 ]
  %77 = getelementptr inbounds nuw i8, ptr %1, i64 24
  %78 = load i32, ptr %77, align 8
  %.not.i48 = icmp eq i32 %78, 0
  br i1 %.not.i48, label %81, label %79

79:                                               ; preds = %HeapTupleHeaderGetUpdateXid.exit47
  %80 = tail call zeroext i1 @TransactionIdPrecedes(i32 noundef %.0.i46, i32 noundef %78) #8
  br i1 %80, label %81, label %heap_prune_record_prunable.exit

81:                                               ; preds = %79, %HeapTupleHeaderGetUpdateXid.exit47
  store i32 %.0.i46, ptr %77, align 8
  br label %heap_prune_record_prunable.exit

82:                                               ; preds = %3
  %83 = tail call zeroext i1 @errstart_cold(i32 noundef 21, ptr noundef null) #9
  tail call void @llvm.assume(i1 %83)
  %84 = load i8, ptr %16, align 1
  %85 = sext i8 %84 to i32
  %86 = tail call i32 (ptr, ...) @errmsg_internal(ptr noundef nonnull @.str.4, i32 noundef %85) #8
  tail call void @errfinish(ptr noundef nonnull @.str.1, i32 noundef 1474, ptr noundef nonnull @__func__.heap_prune_record_unchanged_lp_normal) #8
  unreachable

heap_prune_record_prunable.exit:                  ; preds = %81, %79, %62, %60, %28, %39, %45, %40, %18, %63
  %87 = getelementptr inbounds nuw i8, ptr %1, i64 9
  %88 = load i8, ptr %87, align 1, !range !4, !noundef !5
  %89 = trunc nuw i8 %88 to i1
  br i1 %89, label %90, label %112

90:                                               ; preds = %heap_prune_record_prunable.exit
  call void @llvm.lifetime.start.p0(i64 1, ptr nonnull %4) #8
  %91 = getelementptr inbounds nuw i8, ptr %1, i64 16
  %92 = load ptr, ptr %91, align 8
  %93 = getelementptr inbounds nuw i8, ptr %1, i64 7628
  %94 = getelementptr inbounds nuw i8, ptr %1, i64 2376
  %95 = getelementptr inbounds nuw i8, ptr %1, i64 44
  %96 = load i32, ptr %95, align 4
  %97 = sext i32 %96 to i64
  %98 = getelementptr inbounds [291 x %struct.HeapTupleFreeze], ptr %94, i64 0, i64 %97
  %99 = call zeroext i1 @heap_prepare_freeze_tuple(ptr noundef nonnull %14, ptr noundef %92, ptr noundef nonnull %93, ptr noundef nonnull %98, ptr noundef nonnull %4) #8
  br i1 %99, label %100, label %106

100:                                              ; preds = %90
  %101 = load i32, ptr %95, align 4
  %102 = add i32 %101, 1
  store i32 %102, ptr %95, align 4
  %103 = sext i32 %101 to i64
  %.idx = mul nsw i64 %103, 12
  %104 = getelementptr i8, ptr %94, i64 %.idx
  %105 = getelementptr i8, ptr %104, i64 10
  store i16 %2, ptr %105, align 2
  br label %106

106:                                              ; preds = %100, %90
  %107 = load i8, ptr %4, align 1, !range !4, !noundef !5
  %108 = trunc nuw i8 %107 to i1
  br i1 %108, label %111, label %109

109:                                              ; preds = %106
  %110 = getelementptr inbounds nuw i8, ptr %1, i64 7681
  store i8 0, ptr %110, align 1
  br label %111

111:                                              ; preds = %109, %106
  call void @llvm.lifetime.end.p0(i64 1, ptr nonnull %4) #8
  br label %112

112:                                              ; preds = %111, %heap_prune_record_prunable.exit
  ret void
}